target datalayout = "e-m:e-p270:32:32-p271:32:32-p272:64:64-i64:64-i128:128-f80:128-n8:16:32:64-S128"
target triple = "x86_64-pc-linux-gnu"

%struct.HASH_SEQ_STATUS = type { ptr, i32, ptr, i8, i32 }
%struct.xl_invalid_page = type { %struct.xl_invalid_page_key, i8 }
%struct.xl_invalid_page_key = type { %struct.RelFileLocator, i32, i32 }
%struct.RelFileLocator = type { i32, i32, i32 }

@ignore_invalid_pages = dso_local global i8 0, align 1
@invalid_page_tab = internal global ptr null, align 8
@.str = private unnamed_addr constant [41 x i8] c"WAL contains references to invalid pages\00", align 1
@.str.1 = private unnamed_addr constant [12 x i8] c"xlogutils.c\00", align 1
@__func__.XLogCheckInvalidPages = private unnamed_addr constant [22 x i8] c"XLogCheckInvalidPages\00", align 1
@.str.12 = private unnamed_addr constant [40 x i8] c"page %u of relation %s is uninitialized\00", align 1
@__func__.report_invalid_page = private unnamed_addr constant [20 x i8] c"report_invalid_page\00", align 1
@.str.13 = private unnamed_addr constant [38 x i8] c"page %u of relation %s does not exist\00", align 1

; Function Attrs: nounwind uwtable
define internal void @report_invalid_page(i32 noundef %0, i64 %1, i32 %2, i32 noundef %3, i32 noundef %4, i1 noundef zeroext %5) #0 {
  %7 = alloca %struct.RelFileLocator, align 4
  %8 = alloca { i64, i32 }, align 4
  %9 = alloca i32, align 4
  %10 = alloca i32, align 4
  %11 = alloca i32, align 4
  %12 = alloca i8, align 1
  %13 = alloca ptr, align 8
  %14 = getelementptr inbounds nuw { i64, i32 }, ptr %8, i32 0, i32 0
  store i64 %1, ptr %14, align 4
  %15 = getelementptr inbounds nuw { i64, i32 }, ptr %8, i32 0, i32 1
  store i32 %2, ptr %15, align 4
  call void @llvm.memcpy.p0.p0.i64(ptr align 4 %7, ptr align 4 %8, i64 12, i1 false)
  store i32 %0, ptr %9, align 4
  store i32 %3, ptr %10, align 4
  store i32 %4, ptr %11, align 4
  %16 = zext i1 %5 to i8
  store i8 %16, ptr %12, align 1
  call void @llvm.lifetime.start.p0(i64 8, ptr %13) #10
  %17 = getelementptr inbounds nuw %struct.RelFileLocator, ptr %7, i32 0, i32 1
  %18 = load i32, ptr %17, align 4
  %19 = getelementptr inbounds nuw %struct.RelFileLocator, ptr %7, i32 0, i32 0
  %20 = load i32, ptr %19, align 4
  %21 = getelementptr inbounds nuw %struct.RelFileLocator, ptr %7, i32 0, i32 2
  %22 = load i32, ptr %21, align 4
  %23 = load i32, ptr %10, align 4
  %24 = call ptr @GetRelationPath(i32 noundef %18, i32 noundef %20, i32 noundef %22, i32 noundef -1, i32 noundef %23)
  store ptr %24, ptr %13, align 8
  %25 = load i8, ptr %12, align 1, !range !4, !noundef !5
  %26 = trunc i8 %25 to i1
  br i1 %26, label %27, label %54

27:                                               ; preds = %6
  br label %28

28:                                               ; preds = %27
  %29 = load i32, ptr %9, align 4
  %30 = call i1 @llvm.is.constant.i32(i32 %29)
  br i1 %30, label %31, label %37

31:                                               ; preds = %28
  %32 = load i32, ptr %9, align 4
  %33 = icmp sge i32 %32, 21
  br i1 %33, label %34, label %37

34:                                               ; preds = %31
  %35 = load i32, ptr %9, align 4
  %36 = call zeroext i1 @errstart_cold(i32 noundef %35, ptr noundef null) #11
  br i1 %36, label %40, label %44

37:                                               ; preds = %31, %28
  %38 = load i32, ptr %9, align 4
  %39 = call zeroext i1 @errstart(i32 noundef %38, ptr noundef null)
  br i1 %39, label %40, label %44

40:                                               ; preds = %37, %34
  %41 = load i32, ptr %11, align 4
  %42 = load ptr, ptr %13, align 8
  %43 = call i32 (ptr, ...) @errmsg_internal(ptr noundef @.str.12, i32 noundef %41, ptr noundef %42)
  call void @errfinish(ptr noundef @.str.1, i32 noundef 93, ptr noundef @__func__.report_invalid_page)
  br label %44

44:                                               ; preds = %40, %37, %34
  %45 = load i32, ptr %9, align 4
  %46 = call i1 @llvm.is.constant.i32(i32 %45)
  br i1 %46, label %47, label %51

47:                                               ; preds = %44
  %48 = load i32, ptr %9, align 4
  %49 = icmp sge i32 %48, 21
  br i1 %49, label %50, label %51

50:                                               ; preds = %47
  unreachable

51:                                               ; preds = %47, %44
  br label %52

52:                                               ; preds = %51
  br label %53

53:                                               ; preds = %52
  br label %81

54:                                               ; preds = %6
  br label %55

55:                                               ; preds = %54
  %56 = load i32, ptr %9, align 4
  %57 = call i1 @llvm.is.constant.i32(i32 %56)
  br i1 %57, label %58, label %64

58:                                               ; preds = %55
  %59 = load i32, ptr %9, align 4
  %60 = icmp sge i32 %59, 21
  br i1 %60, label %61, label %64

61:                                               ; preds = %58
  %62 = load i32, ptr %9, align 4
  %63 = call zeroext i1 @errstart_cold(i32 noundef %62, ptr noundef null) #11
  br i1 %63, label %67, label %71

64:                                               ; preds = %58, %55
  %65 = load i32, ptr %9, align 4
  %66 = call zeroext i1 @errstart(i32 noundef %65, ptr noundef null)
  br i1 %66, label %67, label %71

67:                                               ; preds = %64, %61
  %68 = load i32, ptr %11, align 4
  %69 = load ptr, ptr %13, align 8
  %70 = call i32 (ptr, ...) @errmsg_internal(ptr noundef @.str.13, i32 noundef %68, ptr noundef %69)
  call void @errfinish(ptr noundef @.str.1, i32 noundef 96, ptr noundef @__func__.report_invalid_page)
  br label %71

71:                                               ; preds = %67, %64, %61
  %72 = load i32, ptr %9, align 4
  %73 = call i1 @llvm.is.constant.i32(i32 %72)
  br i1 %73, label %74, label %78

74:                                               ; preds = %71
  %75 = load i32, ptr %9, align 4
  %76 = icmp sge i32 %75, 21
  br i1 %76, label %77, label %78

77:                                               ; preds = %74
  unreachable

78:                                               ; preds = %74, %71
  br label %79

79:                                               ; preds = %78
  br label %80

80:                                               ; preds = %79
  br label %81

81:                                               ; preds = %80, %53
  %82 = load ptr, ptr %13, align 8
  call void @pfree(ptr noundef %82)
  call void @llvm.lifetime.end.p0(i64 8, ptr %13) #10
  ret void
}

; Function Attrs: nounwind uwtable
define dso_local void @XLogCheckInvalidPages() #0 {
  %1 = alloca %struct.HASH_SEQ_STATUS, align 8
  %2 = alloca ptr, align 8
  %3 = alloca i8, align 1
  %4 = alloca i32, align 4
  %5 = alloca { i64, i32 }, align 4
  call void @llvm.lifetime.start.p0(i64 32, ptr %1) #10
  call void @llvm.lifetime.start.p0(i64 8, ptr %2) #10
  call void @llvm.lifetime.start.p0(i64 1, ptr %3) #10
  store i8 0, ptr %3, align 1
  %6 = load ptr, ptr @invalid_page_tab, align 8
  %7 = icmp eq ptr %6, null
  br i1 %7, label %8, label %9

8:                                                ; preds = %0
  store i32 1, ptr %4, align 4
  br label %76

9:                                                ; preds = %0
  %10 = load ptr, ptr @invalid_page_tab, align 8
  call void @hash_seq_init(ptr noundef %1, ptr noundef %10)
  br label %11

11:                                               ; preds = %14, %9
  %12 = call ptr @hash_seq_search(ptr noundef %1)
  store ptr %12, ptr %2, align 8
  %13 = icmp ne ptr %12, null
  br i1 %13, label %14, label %34

14:                                               ; preds = %11
  %15 = load ptr, ptr %2, align 8
  %16 = getelementptr inbounds nuw %struct.xl_invalid_page, ptr %15, i32 0, i32 0
  %17 = getelementptr inbounds nuw %struct.xl_invalid_page_key, ptr %16, i32 0, i32 0
  %18 = load ptr, ptr %2, align 8
  %19 = getelementptr inbounds nuw %struct.xl_invalid_page, ptr %18, i32 0, i32 0
  %20 = getelementptr inbounds nuw %struct.xl_invalid_page_key, ptr %19, i32 0, i32 1
  %21 = load i32, ptr %20, align 4
  %22 = load ptr, ptr %2, align 8
  %23 = getelementptr inbounds nuw %struct.xl_invalid_page, ptr %22, i32 0, i32 0
  %24 = getelementptr inbounds nuw %struct.xl_invalid_page_key, ptr %23, i32 0, i32 2
  %25 = load i32, ptr %24, align 4
  %26 = load ptr, ptr %2, align 8
  %27 = getelementptr inbounds nuw %struct.xl_invalid_page, ptr %26, i32 0, i32 1
  %28 = load i8, ptr %27, align 4, !range !4, !noundef !5
  %29 = trunc i8 %28 to i1
  call void @llvm.memcpy.p0.p0.i64(ptr align 4 %5, ptr align 4 %17, i64 12, i1 false)
  %30 = getelementptr inbounds nuw { i64, i32 }, ptr %5, i32 0, i32 0
  %31 = load i64, ptr %30, align 4
  %32 = getelementptr inbounds nuw { i64, i32 }, ptr %5, i32 0, i32 1
  %33 = load i32, ptr %32, align 4
  call void @report_invalid_page(i32 noundef 19, i64 %31, i32 %33, i32 noundef %21, i32 noundef %25, i1 noundef zeroext %29)
  store i8 1, ptr %3, align 1
  br label %11, !llvm.loop !6

34:                                               ; preds = %11
  %35 = load i8, ptr %3, align 1, !range !4, !noundef !5
  %36 = trunc i8 %35 to i1
  br i1 %36, label %37, label %74

37:                                               ; preds = %34
  br label %38

38:                                               ; preds = %37
  %39 = load i8, ptr @ignore_invalid_pages, align 1, !range !4, !noundef !5
  %40 = trunc i8 %39 to i1
  %41 = select i1 %40, i32 19, i32 23
  %42 = call i1 @llvm.is.constant.i32(i32 %41)
  br i1 %42, label %43, label %53

43:                                               ; preds = %38
  %44 = load i8, ptr @ignore_invalid_pages, align 1, !range !4, !noundef !5
  %45 = trunc i8 %44 to i1
  %46 = select i1 %45, i32 19, i32 23
  %47 = icmp sge i32 %46, 21
  br i1 %47, label %48, label %53

48:                                               ; preds = %43
  %49 = load i8, ptr @ignore_invalid_pages, align 1, !range !4, !noundef !5
  %50 = trunc i8 %49 to i1
  %51 = select i1 %50, i32 19, i32 23
  %52 = call zeroext i1 @errstart_cold(i32 noundef %51, ptr noundef null) #11
  br i1 %52, label %58, label %60

53:                                               ; preds = %43, %38
  %54 = load i8, ptr @ignore_invalid_pages, align 1, !range !4, !noundef !5
  %55 = trunc i8 %54 to i1
  %56 = select i1 %55, i32 19, i32 23
  %57 = call zeroext i1 @errstart(i32 noundef %56, ptr noundef null)
  br i1 %57, label %58, label %60

58:                                               ; preds = %53, %48
  %59 = call i32 (ptr, ...) @errmsg_internal(ptr noundef @.str)
  call void @errfinish(ptr noundef @.str.1, i32 noundef 269, ptr noundef @__func__.XLogCheckInvalidPages)
  br label %60

60:                                               ; preds = %58, %53, %48
  %61 = load i8, ptr @ignore_invalid_pages, align 1, !range !4, !noundef !5
  %62 = trunc i8 %61 to i1
  %63 = select i1 %62, i32 19, i32 23
  %64 = call i1 @llvm.is.constant.i32(i32 %63)
  br i1 %64, label %65, label %71

65:                                               ; preds = %60
  %66 = load i8, ptr @ignore_invalid_pages, align 1, !range !4, !noundef !5
  %67 = trunc i8 %66 to i1
  %68 = select i1 %67, i32 19, i32 23
  %69 = icmp sge i32 %68, 21
  br i1 %69, label %70, label %71

70:                                               ; preds = %65
  unreachable

71:                                               ; preds = %65, %60
  br label %72

72:                                               ; preds = %71
  br label %73

73:                                               ; preds = %72
  br label %74

74:                                               ; preds = %73, %34
  %75 = load ptr, ptr @invalid_page_tab, align 8
  call void @hash_destroy(ptr noundef %75)
  store ptr null, ptr @invalid_page_tab, align 8
  store i32 0, ptr %4, align 4
  br label %76

76:                                               ; preds = %74, %8
  call void @llvm.lifetime.end.p0(i64 1, ptr %3) #10
  call void @llvm.lifetime.end.p0(i64 8, ptr %2) #10
  call void @llvm.lifetime.end.p0(i64 32, ptr %1) #10
  %77 = load i32, ptr %4, align 4
  switch i32 %77, label %79 [
    i32 0, label %78
    i32 1, label %78
  ]

78:                                               ; preds = %76, %76
  ret void

79:                                               ; preds = %76
  unreachable
}