; Function Attrs: nounwind uwtable
define dso_local void @XLogCheckInvalidPages() local_unnamed_addr #0 {
  %1 = alloca %struct.HASH_SEQ_STATUS, align 8
  call void @llvm.lifetime.start.p0(i64 32, ptr nonnull %1) #8
  %2 = load ptr, ptr @invalid_page_tab, align 8
  %3 = icmp eq ptr %2, null
  br i1 %3, label %25, label %4

4:                                                ; preds = %0
  call void @hash_seq_init(ptr noundef nonnull %1, ptr noundef nonnull %2) #8
  %5 = call ptr @hash_seq_search(ptr noundef nonnull %1) #8
  %.not8 = icmp eq ptr %5, null
  br i1 %.not8, label %.critedge, label %.lr.ph

.lr.ph:                                           ; preds = %4, %report_invalid_page.exit
  %6 = phi ptr [ %17, %report_invalid_page.exit ], [ %5, %4 ]
  %7 = getelementptr inbounds nuw i8, ptr %6, i64 12
  %8 = load i32, ptr %7, align 4
  %9 = getelementptr inbounds nuw i8, ptr %6, i64 16
  %10 = load i32, ptr %9, align 4
  %11 = getelementptr inbounds nuw i8, ptr %6, i64 20
  %12 = load i8, ptr %11, align 4, !range !4, !noundef !5
  %.sroa.0.0.copyload = load i64, ptr %6, align 4
  %.sroa.2.0..sroa_idx = getelementptr inbounds nuw i8, ptr %6, i64 8
  %.sroa.2.0.copyload = load i32, ptr %.sroa.2.0..sroa_idx, align 4
  %.sroa.025.0.extract.trunc.i = trunc i64 %.sroa.0.0.copyload to i32
  %.sroa.226.0.extract.shift.i = lshr i64 %.sroa.0.0.copyload, 32
  %.sroa.226.0.extract.trunc.i = trunc nuw i64 %.sroa.226.0.extract.shift.i to i32
  %13 = call ptr @GetRelationPath(i32 noundef %.sroa.226.0.extract.trunc.i, i32 noundef %.sroa.025.0.extract.trunc.i, i32 noundef %.sroa.2.0.copyload, i32 noundef -1, i32 noundef %8) #8
  %14 = call zeroext i1 @errstart(i32 noundef 19, ptr noundef null) #8
  br i1 %14, label %.sink.split.i, label %report_invalid_page.exit

.sink.split.i:                                    ; preds = %.lr.ph
  %15 = trunc nuw i8 %12 to i1
  %..i = select i1 %15, i32 93, i32 96
  %.str.12..str.13.i = select i1 %15, ptr @.str.12, ptr @.str.13
  %16 = call i32 (ptr, ...) @errmsg_internal(ptr noundef nonnull %.str.12..str.13.i, i32 noundef %10, ptr noundef %13) #8
  call void @errfinish(ptr noundef nonnull @.str.1, i32 noundef %..i, ptr noundef nonnull @__func__.report_invalid_page) #8
  br label %report_invalid_page.exit

report_invalid_page.exit:                         ; preds = %.lr.ph, %.sink.split.i
  call void @pfree(ptr noundef %13) #8
  %17 = call ptr @hash_seq_search(ptr noundef nonnull %1) #8
  %.not = icmp eq ptr %17, null
  br i1 %.not, label %._crit_edge, label %.lr.ph, !llvm.loop !6

._crit_edge:                                      ; preds = %report_invalid_page.exit
  %18 = load i8, ptr @ignore_invalid_pages, align 1, !range !4, !noundef !5
  %19 = trunc nuw i8 %18 to i1
  %20 = select i1 %19, i32 19, i32 23
  %21 = call zeroext i1 @errstart(i32 noundef %20, ptr noundef null) #8
  br i1 %21, label %22, label %.critedge

22:                                               ; preds = %._crit_edge
  %23 = call i32 (ptr, ...) @errmsg_internal(ptr noundef nonnull @.str) #8
  call void @errfinish(ptr noundef nonnull @.str.1, i32 noundef 269, ptr noundef nonnull @__func__.XLogCheckInvalidPages) #8
  br label %.critedge

.critedge:                                        ; preds = %._crit_edge, %22, %4
  %24 = load ptr, ptr @invalid_page_tab, align 8
  call void @hash_destroy(ptr noundef %24) #8
  store ptr null, ptr @invalid_page_tab, align 8
  br label %25

25:                                               ; preds = %0, %.critedge
  call void @llvm.lifetime.end.p0(i64 32, ptr nonnull %1) #8
  ret void
}